target datalayout = "e-m:e-p270:32:32-p271:32:32-p272:64:64-i64:64-i128:128-f80:128-n8:16:32:64-S128"
target triple = "x86_64-pc-linux-gnu"

%"class.net::IPEndPoint" = type <{ %"class.net::IPAddress", i16, [6 x i8] }>
%"class.net::IPAddress" = type { %"class.std::vector" }
%"class.std::vector" = type { %"struct.std::_Vector_base" }
%"struct.std::_Vector_base" = type { %"struct.std::_Vector_base<unsigned char, std::allocator<unsigned char>>::_Vector_impl" }
%"struct.std::_Vector_base<unsigned char, std::allocator<unsigned char>>::_Vector_impl" = type { %"struct.std::_Vector_base<unsigned char, std::allocator<unsigned char>>::_Vector_impl_data" }
%"struct.std::_Vector_base<unsigned char, std::allocator<unsigned char>>::_Vector_impl_data" = type { ptr, ptr, ptr }
%struct.sockaddr_in = type { i16, i16, %struct.in_addr, [8 x i8] }
%struct.in_addr = type { i32 }
%struct.sockaddr_in6 = type { i16, i16, i32, %struct.in6_addr, i32 }
%struct.in6_addr = type { %union.anon }
%union.anon = type { [4 x i32] }
%struct.sockaddr = type { i16, [14 x i8] }

; Function Attrs: inlinehint mustprogress nounwind uwtable
define linkonce_odr noundef zeroext i16 @_ZN4base8ByteSwapEt(i16 noundef zeroext %0) #12 comdat {
  %2 = alloca i16, align 2
  store i16 %0, ptr %2, align 2, !tbaa !19
  %3 = load i16, ptr %2, align 2, !tbaa !19
  %4 = call i16 @llvm.bswap.i16(i16 %3)
  ret i16 %4
}

; Function Attrs: inlinehint mustprogress nounwind uwtable
define linkonce_odr noundef zeroext i16 @_ZN4base11NetToHost16Et(i16 noundef zeroext %0) #12 comdat {
  %2 = alloca i16, align 2
  store i16 %0, ptr %2, align 2, !tbaa !19
  %3 = load i16, ptr %2, align 2, !tbaa !19
  %4 = call noundef zeroext i16 @_ZN4base8ByteSwapEt(i16 noundef zeroext %3)
  ret i16 %4
}

; Function Attrs: inlinehint mustprogress uwtable
define linkonce_odr noundef nonnull align 8 dereferenceable(24) ptr @_ZN3net9IPAddressaSERKS0_(ptr noundef nonnull align 8 dereferenceable(24) %0, ptr noundef nonnull align 8 dereferenceable(24) %1) #4 comdat align 2 {
  %3 = alloca ptr, align 8
  %4 = alloca ptr, align 8
  store ptr %0, ptr %3, align 8, !tbaa !17
  store ptr %1, ptr %4, align 8, !tbaa !17
  %5 = load ptr, ptr %3, align 8
  %6 = getelementptr inbounds nuw %"class.net::IPAddress", ptr %5, i32 0, i32 0
  %7 = load ptr, ptr %4, align 8, !tbaa !17
  %8 = getelementptr inbounds nuw %"class.net::IPAddress", ptr %7, i32 0, i32 0
  %9 = call noundef nonnull align 8 dereferenceable(24) ptr @_ZNSt6vectorIhSaIhEEaSERKS1_(ptr noundef nonnull align 8 dereferenceable(24) %6, ptr noundef nonnull align 8 dereferenceable(24) %8)
  ret ptr %5
}

; Function Attrs: mustprogress uwtable
define internal noundef zeroext i1 @_ZN3net12_GLOBAL__N_124GetIPAddressFromSockAddrEPK8sockaddrjPPKhPmPt(ptr noundef %0, i32 noundef %1, ptr noundef %2, ptr noundef %3, ptr noundef %4) #0 {
  %6 = alloca i1, align 1
  %7 = alloca ptr, align 8
  %8 = alloca i32, align 4
  %9 = alloca ptr, align 8
  %10 = alloca ptr, align 8
  %11 = alloca ptr, align 8
  %12 = alloca ptr, align 8
  %13 = alloca ptr, align 8
  store ptr %0, ptr %7, align 8, !tbaa !20
  store i32 %1, ptr %8, align 4, !tbaa !24
  store ptr %2, ptr %9, align 8, !tbaa !44
  store ptr %3, ptr %10, align 8, !tbaa !46
  store ptr %4, ptr %11, align 8, !tbaa !48
  %14 = load ptr, ptr %7, align 8, !tbaa !20
  %15 = getelementptr inbounds nuw %struct.sockaddr, ptr %14, i32 0, i32 0
  %16 = load i16, ptr %15, align 2, !tbaa !50
  %17 = zext i16 %16 to i32
  %18 = icmp eq i32 %17, 2
  br i1 %18, label %19, label %38

19:                                               ; preds = %5
  %20 = load i32, ptr %8, align 4, !tbaa !24
  %21 = icmp ult i32 %20, 16
  br i1 %21, label %22, label %23

22:                                               ; preds = %19
  store i1 false, ptr %6, align 1
  br label %64

23:                                               ; preds = %19
  call void @llvm.lifetime.start.p0(i64 8, ptr %12) #15
  %24 = load ptr, ptr %7, align 8, !tbaa !20
  store ptr %24, ptr %12, align 8, !tbaa !26
  %25 = load ptr, ptr %12, align 8, !tbaa !26
  %26 = getelementptr inbounds nuw %struct.sockaddr_in, ptr %25, i32 0, i32 2
  %27 = load ptr, ptr %9, align 8, !tbaa !44
  store ptr %26, ptr %27, align 8, !tbaa !41
  %28 = load ptr, ptr %10, align 8, !tbaa !46
  store i64 4, ptr %28, align 8, !tbaa !42
  %29 = load ptr, ptr %11, align 8, !tbaa !48
  %30 = icmp ne ptr %29, null
  br i1 %30, label %31, label %37

31:                                               ; preds = %23
  %32 = load ptr, ptr %12, align 8, !tbaa !26
  %33 = getelementptr inbounds nuw %struct.sockaddr_in, ptr %32, i32 0, i32 1
  %34 = load i16, ptr %33, align 2, !tbaa !31
  %35 = call noundef zeroext i16 @_ZN4base11NetToHost16Et(i16 noundef zeroext %34)
  %36 = load ptr, ptr %11, align 8, !tbaa !48
  store i16 %35, ptr %36, align 2, !tbaa !19
  br label %37

37:                                               ; preds = %31, %23
  store i1 true, ptr %6, align 1
  call void @llvm.lifetime.end.p0(i64 8, ptr %12) #15
  br label %64

38:                                               ; preds = %5
  %39 = load ptr, ptr %7, align 8, !tbaa !20
  %40 = getelementptr inbounds nuw %struct.sockaddr, ptr %39, i32 0, i32 0
  %41 = load i16, ptr %40, align 2, !tbaa !50
  %42 = zext i16 %41 to i32
  %43 = icmp eq i32 %42, 10
  br i1 %43, label %44, label %63

44:                                               ; preds = %38
  %45 = load i32, ptr %8, align 4, !tbaa !24
  %46 = icmp ult i32 %45, 28
  br i1 %46, label %47, label %48

47:                                               ; preds = %44
  store i1 false, ptr %6, align 1
  br label %64

48:                                               ; preds = %44
  call void @llvm.lifetime.start.p0(i64 8, ptr %13) #15
  %49 = load ptr, ptr %7, align 8, !tbaa !20
  store ptr %49, ptr %13, align 8, !tbaa !32
  %50 = load ptr, ptr %13, align 8, !tbaa !32
  %51 = getelementptr inbounds nuw %struct.sockaddr_in6, ptr %50, i32 0, i32 3
  %52 = load ptr, ptr %9, align 8, !tbaa !44
  store ptr %51, ptr %52, align 8, !tbaa !41
  %53 = load ptr, ptr %10, align 8, !tbaa !46
  store i64 16, ptr %53, align 8, !tbaa !42
  %54 = load ptr, ptr %11, align 8, !tbaa !48
  %55 = icmp ne ptr %54, null
  br i1 %55, label %56, label %62

56:                                               ; preds = %48
  %57 = load ptr, ptr %13, align 8, !tbaa !32
  %58 = getelementptr inbounds nuw %struct.sockaddr_in6, ptr %57, i32 0, i32 1
  %59 = load i16, ptr %58, align 2, !tbaa !37
  %60 = call noundef zeroext i16 @_ZN4base11NetToHost16Et(i16 noundef zeroext %59)
  %61 = load ptr, ptr %11, align 8, !tbaa !48
  store i16 %60, ptr %61, align 2, !tbaa !19
  br label %62

62:                                               ; preds = %56, %48
  store i1 true, ptr %6, align 1
  call void @llvm.lifetime.end.p0(i64 8, ptr %13) #15
  br label %64

63:                                               ; preds = %38
  store i1 false, ptr %6, align 1
  br label %64

64:                                               ; preds = %63, %62, %47, %37, %22
  %65 = load i1, ptr %6, align 1
  ret i1 %65
}

; Function Attrs: mustprogress uwtable
define noundef zeroext i1 @_ZN3net10IPEndPoint12FromSockAddrEPK8sockaddrj(ptr noundef nonnull align 8 dereferenceable(26) %0, ptr noundef %1, i32 noundef %2) #0 align 2 personality ptr @__gxx_personality_v0 {
  %4 = alloca i1, align 1
  %5 = alloca ptr, align 8
  %6 = alloca ptr, align 8
  %7 = alloca i32, align 4
  %8 = alloca ptr, align 8
  %9 = alloca i64, align 8
  %10 = alloca i16, align 2
  %11 = alloca i32, align 4
  %12 = alloca %"class.net::IPAddress", align 8
  %13 = alloca ptr, align 8
  %14 = alloca i32, align 4
  store ptr %0, ptr %5, align 8, !tbaa !3
  store ptr %1, ptr %6, align 8, !tbaa !20
  store i32 %2, ptr %7, align 4, !tbaa !24
  %15 = load ptr, ptr %5, align 8
  call void @llvm.lifetime.start.p0(i64 8, ptr %8) #15
  call void @llvm.lifetime.start.p0(i64 8, ptr %9) #15
  call void @llvm.lifetime.start.p0(i64 2, ptr %10) #15
  %16 = load ptr, ptr %6, align 8, !tbaa !20
  %17 = load i32, ptr %7, align 4, !tbaa !24
  %18 = call noundef zeroext i1 @_ZN3net12_GLOBAL__N_124GetIPAddressFromSockAddrEPK8sockaddrjPPKhPmPt(ptr noundef %16, i32 noundef %17, ptr noundef %8, ptr noundef %9, ptr noundef %10)
  br i1 %18, label %20, label %19

19:                                               ; preds = %3
  store i1 false, ptr %4, align 1
  store i32 1, ptr %11, align 4
  br label %32

20:                                               ; preds = %3
  call void @llvm.lifetime.start.p0(i64 24, ptr %12) #15
  %21 = load ptr, ptr %8, align 8, !tbaa !41
  %22 = load i64, ptr %9, align 8, !tbaa !42
  call void @_ZN3net9IPAddressC1EPKhm(ptr noundef nonnull align 8 dereferenceable(24) %12, ptr noundef %21, i64 noundef %22)
  %23 = getelementptr inbounds nuw %"class.net::IPEndPoint", ptr %15, i32 0, i32 0
  %24 = invoke noundef nonnull align 8 dereferenceable(24) ptr @_ZN3net9IPAddressaSERKS0_(ptr noundef nonnull align 8 dereferenceable(24) %23, ptr noundef nonnull align 8 dereferenceable(24) %12)
          to label %25 unwind label %28

25:                                               ; preds = %20
  call void @_ZN3net9IPAddressD1Ev(ptr noundef nonnull align 8 dereferenceable(24) %12) #15
  call void @llvm.lifetime.end.p0(i64 24, ptr %12) #15
  %26 = load i16, ptr %10, align 2, !tbaa !19
  %27 = getelementptr inbounds nuw %"class.net::IPEndPoint", ptr %15, i32 0, i32 1
  store i16 %26, ptr %27, align 8, !tbaa !8
  store i1 true, ptr %4, align 1
  store i32 1, ptr %11, align 4
  br label %32

28:                                               ; preds = %20
  %29 = landingpad { ptr, i32 }
          cleanup
  %30 = extractvalue { ptr, i32 } %29, 0
  store ptr %30, ptr %13, align 8
  %31 = extractvalue { ptr, i32 } %29, 1
  store i32 %31, ptr %14, align 4
  call void @_ZN3net9IPAddressD1Ev(ptr noundef nonnull align 8 dereferenceable(24) %12) #15
  call void @llvm.lifetime.end.p0(i64 24, ptr %12) #15
  call void @llvm.lifetime.end.p0(i64 2, ptr %10) #15
  call void @llvm.lifetime.end.p0(i64 8, ptr %9) #15
  call void @llvm.lifetime.end.p0(i64 8, ptr %8) #15
  br label %34

32:                                               ; preds = %25, %19
  call void @llvm.lifetime.end.p0(i64 2, ptr %10) #15
  call void @llvm.lifetime.end.p0(i64 8, ptr %9) #15
  call void @llvm.lifetime.end.p0(i64 8, ptr %8) #15
  %33 = load i1, ptr %4, align 1
  ret i1 %33

34:                                               ; preds = %28
  %35 = load ptr, ptr %13, align 8
  %36 = load i32, ptr %14, align 4
  %37 = insertvalue { ptr, i32 } poison, ptr %35, 0
  %38 = insertvalue { ptr, i32 } %37, i32 %36, 1
  resume { ptr, i32 } %38
}