; Function Attrs: mustprogress uwtable
define noundef zeroext i1 @_ZN3net10IPEndPoint12FromSockAddrEPK8sockaddrj(ptr noundef nonnull align 8 dereferenceable(26) %0, ptr noundef %1, i32 noundef %2) local_unnamed_addr #0 align 2 personality ptr @__gxx_personality_v0 {
  %4 = alloca %"class.net::IPAddress", align 8
  %5 = load i16, ptr %1, align 2, !tbaa !27
  switch i16 %5, label %_ZN3net12_GLOBAL__N_124GetIPAddressFromSockAddrEPK8sockaddrjPPKhPmPt.exit.thread [
    i16 2, label %6
    i16 10, label %8
  ]

6:                                                ; preds = %3
  %7 = icmp ult i32 %2, 16
  br i1 %7, label %_ZN3net12_GLOBAL__N_124GetIPAddressFromSockAddrEPK8sockaddrjPPKhPmPt.exit.thread, label %10

8:                                                ; preds = %3
  %9 = icmp ult i32 %2, 28
  br i1 %9, label %_ZN3net12_GLOBAL__N_124GetIPAddressFromSockAddrEPK8sockaddrjPPKhPmPt.exit.thread, label %10

10:                                               ; preds = %8, %6
  %.sink22.i = phi i64 [ 4, %6 ], [ 8, %8 ]
  %.sink.i = phi i64 [ 4, %6 ], [ 16, %8 ]
  %11 = getelementptr inbounds nuw i8, ptr %1, i64 %.sink22.i
  %12 = getelementptr inbounds nuw i8, ptr %1, i64 2
  %13 = load i16, ptr %12, align 2, !tbaa !29
  call void @llvm.lifetime.start.p0(i64 24, ptr nonnull %4) #13
  call void @_ZN3net9IPAddressC1EPKhm(ptr noundef nonnull align 8 dereferenceable(24) %4, ptr noundef nonnull %11, i64 noundef %.sink.i)
  %14 = invoke noundef nonnull align 8 dereferenceable(24) ptr @_ZNSt6vectorIhSaIhEEaSERKS1_(ptr noundef nonnull align 8 dereferenceable(24) %0, ptr noundef nonnull align 8 dereferenceable(24) %4)
          to label %_ZN3net9IPAddressaSERKS0_.exit unwind label %17

_ZN3net9IPAddressaSERKS0_.exit:                   ; preds = %10
  %15 = call noundef i16 @llvm.bswap.i16(i16 %13)
  call void @_ZN3net9IPAddressD1Ev(ptr noundef nonnull align 8 dereferenceable(24) %4) #13
  call void @llvm.lifetime.end.p0(i64 24, ptr nonnull %4) #13
  %16 = getelementptr inbounds nuw i8, ptr %0, i64 24
  store i16 %15, ptr %16, align 8, !tbaa !3
  br label %_ZN3net12_GLOBAL__N_124GetIPAddressFromSockAddrEPK8sockaddrjPPKhPmPt.exit.thread

17:                                               ; preds = %10
  %18 = landingpad { ptr, i32 }
          cleanup
  call void @_ZN3net9IPAddressD1Ev(ptr noundef nonnull align 8 dereferenceable(24) %4) #13
  call void @llvm.lifetime.end.p0(i64 24, ptr nonnull %4) #13
  resume { ptr, i32 } %18

_ZN3net12_GLOBAL__N_124GetIPAddressFromSockAddrEPK8sockaddrjPPKhPmPt.exit.thread: ; preds = %3, %8, %6, %_ZN3net9IPAddressaSERKS0_.exit
  %.0.i12 = phi i1 [ true, %_ZN3net9IPAddressaSERKS0_.exit ], [ false, %6 ], [ false, %8 ], [ false, %3 ]
  ret i1 %.0.i12
}